; ModuleID = '16/1143.c'
source_filename = "16/1143.c"
target datalayout = "e-m:e-p270:32:32-p271:32:32-p272:64:64-i64:64-f80:128-n8:16:32:64-S128"
target triple = "x86_64-pc-linux-gnu"

@.str = private unnamed_addr constant [3 x i8] c"%d\00", align 1

; Function Attrs: noinline nounwind uwtable
define dso_local i32 @main(i32 %0, i8** %1) #0 {
  %3 = alloca i32, align 4
  %4 = alloca i32, align 4
  %5 = alloca i8**, align 8
  %6 = alloca i32, align 4
  %7 = alloca i32, align 4
  store i32 0, i32* %3, align 4
  store i32 %0, i32* %4, align 4
  store i8** %1, i8*** %5, align 8
  %8 = call i32 (i8*, ...) @__isoc99_scanf(i8* getelementptr inbounds ([3 x i8], [3 x i8]* @.str, i64 0, i64 0), i32* %6)
  store i32 1, i32* %7, align 4
  br label %9

9:                                                ; preds = %22, %2
  %10 = load i32, i32* %7, align 4
  %11 = icmp sle i32 %10, 4
  br i1 %11, label %12, label %25

12:                                               ; preds = %9
  %13 = load i32, i32* %6, align 4
  %14 = srem i32 %13, 10
  %15 = call i32 (i8*, ...) @printf(i8* getelementptr inbounds ([3 x i8], [3 x i8]* @.str, i64 0, i64 0), i32 %14)
  %16 = load i32, i32* %6, align 4
  %17 = sdiv i32 %16, 10
  store i32 %17, i32* %6, align 4
  %18 = load i32, i32* %6, align 4
  %19 = icmp slt i32 %18, 1
  br i1 %19, label %20, label %21

20:                                               ; preds = %12
  br label %25

21:                                               ; preds = %12
  br label %22

22:                                               ; preds = %21
  %23 = load i32, i32* %7, align 4
  %24 = add nsw i32 %23, 1
  store i32 %24, i32* %7, align 4
  br label %9

25:                                               ; preds = %20, %9
  ret i32 0
}

declare dso_local i32 @__isoc99_scanf(i8*, ...) #1

declare dso_local i32 @printf(i8*, ...) #1


!llvm.module.flags = !{!0}
!llvm.ident = !{!1}

!0 = !{i32 1, !"wchar_size", i32 4}
!1 = !{!"clang version 10.0.0-4ubuntu1 "}
